; Function Attrs: uwtable
define void @_ZThn8_N9grpc_core21promise_filter_detail12BaseCallData4DropEt(ptr nocapture noundef readonly %this, i16 zeroext %0) unnamed_addr #15 align 2 {
entry:
  %call_stack_.i = getelementptr inbounds i8, ptr %this, i64 8
  %1 = load ptr, ptr %call_stack_.i, align 8
  %2 = atomicrmw sub ptr %1, i64 1 acq_rel, align 8
  %cmp.i.i.i = icmp eq i64 %2, 1
  br i1 %cmp.i.i.i, label %if.then.i.i, label %_ZN9grpc_core21promise_filter_detail12BaseCallData4DropEt.exit

if.then.i.i:                                      ; preds = %entry
  tail call void @_Z19grpc_stream_destroyP20grpc_stream_refcount(ptr noundef nonnull %1)
  br label %_ZN9grpc_core21promise_filter_detail12BaseCallData4DropEt.exit

_ZN9grpc_core21promise_filter_detail12BaseCallData4DropEt.exit: ; preds = %entry, %if.then.i.i
  ret void
}